; Function Attrs: nounwind uwtable
define internal i32 @query_formats(ptr noundef %0, ptr noundef %1, ptr noundef %2) #1 {
  %4 = getelementptr inbounds nuw i8, ptr %0, i64 72
  %5 = load ptr, ptr %4, align 8, !tbaa !4
  %6 = getelementptr inbounds nuw i8, ptr %5, i64 72
  %7 = load i32, ptr %6, align 8, !tbaa !37
  %.not = icmp eq i32 %7, 0
  br i1 %.not, label %10, label %8

8:                                                ; preds = %3
  %9 = tail call ptr @ff_draw_supported_pixel_formats(i32 noundef 0) #11
  br label %12

10:                                               ; preds = %3
  %11 = tail call ptr @ff_formats_pixdesc_filter(i32 noundef 0, i32 noundef 14) #11
  br label %12

12:                                               ; preds = %10, %8
  %.sink = phi ptr [ %11, %10 ], [ %9, %8 ]
  %13 = tail call i32 @ff_set_common_formats2(ptr noundef nonnull %0, ptr noundef %1, ptr noundef %2, ptr noundef %.sink) #11
  ret i32 %13
}